; Function Attrs: nounwind uwtable
define ptr @l_Lean_MonadHashMapCacheAdapter_findCached_x3f___rarg___lambda__1(ptr noundef %0, ptr noundef %1, ptr noundef %2, ptr noundef %3, ptr noundef readonly captures(none) %4) local_unnamed_addr #0 {
  %6 = getelementptr inbounds nuw i8, ptr %0, i64 8
  %7 = load ptr, ptr %6, align 8, !tbaa !4
  %8 = ptrtoint ptr %7 to i64
  %9 = and i64 %8, 1
  %.not = icmp eq i64 %9, 0
  br i1 %.not, label %10, label %lean_inc.exit36

10:                                               ; preds = %5
  %.val.i = load i32, ptr %7, align 4, !tbaa !8
  %11 = icmp sgt i32 %.val.i, 0
  br i1 %11, label %12, label %14, !prof !11

12:                                               ; preds = %10
  %13 = add nuw i32 %.val.i, 1
  store i32 %13, ptr %7, align 4, !tbaa !8
  br label %lean_inc.exit36

14:                                               ; preds = %10
  %.not.i47 = icmp eq i32 %.val.i, 0
  br i1 %.not.i47, label %lean_inc.exit36, label %15

15:                                               ; preds = %14
  tail call void @lean_inc_ref_cold(ptr noundef nonnull %7) #4
  br label %lean_inc.exit36

lean_inc.exit36:                                  ; preds = %15, %14, %12, %5
  %16 = ptrtoint ptr %0 to i64
  %17 = and i64 %16, 1
  %.not56 = icmp eq i64 %17, 0
  br i1 %.not56, label %18, label %lean_dec.exit39

18:                                               ; preds = %lean_inc.exit36
  %19 = load i32, ptr %0, align 4, !tbaa !8
  %20 = icmp sgt i32 %19, 1
  br i1 %20, label %21, label %23, !prof !11

21:                                               ; preds = %18
  %22 = add nsw i32 %19, -1
  store i32 %22, ptr %0, align 4, !tbaa !8
  br label %lean_dec.exit39

23:                                               ; preds = %18
  %.not.i = icmp eq i32 %19, 0
  br i1 %.not.i, label %lean_dec.exit39, label %24

24:                                               ; preds = %23
  tail call void @lean_dec_ref_cold(ptr noundef nonnull %0) #4
  br label %lean_dec.exit39

lean_dec.exit39:                                  ; preds = %24, %23, %21, %lean_inc.exit36
  %25 = getelementptr inbounds nuw i8, ptr %7, i64 16
  %26 = load ptr, ptr %25, align 8, !tbaa !4
  %27 = ptrtoint ptr %26 to i64
  %28 = and i64 %27, 1
  %.not57 = icmp eq i64 %28, 0
  br i1 %.not57, label %29, label %lean_inc.exit35

29:                                               ; preds = %lean_dec.exit39
  %.val.i48 = load i32, ptr %26, align 4, !tbaa !8
  %30 = icmp sgt i32 %.val.i48, 0
  br i1 %30, label %31, label %33, !prof !11

31:                                               ; preds = %29
  %32 = add nuw i32 %.val.i48, 1
  store i32 %32, ptr %26, align 4, !tbaa !8
  br label %lean_inc.exit35

33:                                               ; preds = %29
  %.not.i49 = icmp eq i32 %.val.i48, 0
  br i1 %.not.i49, label %lean_inc.exit35, label %34

34:                                               ; preds = %33
  tail call void @lean_inc_ref_cold(ptr noundef nonnull %26) #4
  br label %lean_inc.exit35

lean_inc.exit35:                                  ; preds = %34, %33, %31, %lean_dec.exit39
  br i1 %.not, label %35, label %lean_dec.exit38

35:                                               ; preds = %lean_inc.exit35
  %36 = load i32, ptr %7, align 4, !tbaa !8
  %37 = icmp sgt i32 %36, 1
  br i1 %37, label %38, label %40, !prof !11

38:                                               ; preds = %35
  %39 = add nsw i32 %36, -1
  store i32 %39, ptr %7, align 4, !tbaa !8
  br label %lean_dec.exit38

40:                                               ; preds = %35
  %.not.i40 = icmp eq i32 %36, 0
  br i1 %.not.i40, label %lean_dec.exit38, label %41

41:                                               ; preds = %40
  tail call void @lean_dec_ref_cold(ptr noundef nonnull %7) #4
  br label %lean_dec.exit38

lean_dec.exit38:                                  ; preds = %41, %40, %38, %lean_inc.exit35
  %42 = getelementptr inbounds nuw i8, ptr %4, i64 16
  %43 = load ptr, ptr %42, align 8, !tbaa !4
  %44 = getelementptr i8, ptr %43, i64 8
  %.val = load i64, ptr %44, align 8, !tbaa !14
  %45 = and i64 %.val, 9223372036854775807
  %46 = ptrtoint ptr %2 to i64
  %47 = and i64 %46, 1
  %.not58 = icmp eq i64 %47, 0
  br i1 %.not58, label %48, label %lean_inc.exit

48:                                               ; preds = %lean_dec.exit38
  %.val.i51 = load i32, ptr %2, align 4, !tbaa !8
  %49 = icmp sgt i32 %.val.i51, 0
  br i1 %49, label %50, label %52, !prof !11

50:                                               ; preds = %48
  %51 = add nuw i32 %.val.i51, 1
  store i32 %51, ptr %2, align 4, !tbaa !8
  br label %lean_inc.exit

52:                                               ; preds = %48
  %.not.i52 = icmp eq i32 %.val.i51, 0
  br i1 %.not.i52, label %lean_inc.exit, label %53

53:                                               ; preds = %52
  tail call void @lean_inc_ref_cold(ptr noundef nonnull %2) #4
  br label %lean_inc.exit

lean_inc.exit:                                    ; preds = %53, %52, %50, %lean_dec.exit38
  %54 = tail call ptr @lean_apply_1(ptr noundef %1, ptr noundef %2) #4
  %55 = getelementptr i8, ptr %54, i64 8
  %.val46 = load i64, ptr %55, align 8, !tbaa !14
  %56 = ptrtoint ptr %54 to i64
  %57 = and i64 %56, 1
  %.not59 = icmp eq i64 %57, 0
  br i1 %.not59, label %58, label %lean_dec.exit

58:                                               ; preds = %lean_inc.exit
  %59 = load i32, ptr %54, align 4, !tbaa !8
  %60 = icmp sgt i32 %59, 1
  br i1 %60, label %61, label %63, !prof !11

61:                                               ; preds = %58
  %62 = add nsw i32 %59, -1
  store i32 %62, ptr %54, align 4, !tbaa !8
  br label %lean_dec.exit

63:                                               ; preds = %58
  %.not.i42 = icmp eq i32 %59, 0
  br i1 %.not.i42, label %lean_dec.exit, label %64

64:                                               ; preds = %63
  tail call void @lean_dec_ref_cold(ptr noundef nonnull %54) #4
  br label %lean_dec.exit

lean_dec.exit:                                    ; preds = %lean_inc.exit, %61, %63, %64
  %65 = lshr i64 %.val46, 32
  %66 = xor i64 %65, %.val46
  %67 = lshr i64 %66, 16
  %68 = xor i64 %67, %66
  %69 = add nsw i64 %45, -1
  %70 = and i64 %68, %69
  %71 = getelementptr inbounds nuw i8, ptr %43, i64 24
  %72 = getelementptr inbounds nuw [0 x ptr], ptr %71, i64 0, i64 %70
  %73 = load ptr, ptr %72, align 8, !tbaa !4
  %74 = ptrtoint ptr %73 to i64
  %75 = and i64 %74, 1
  %.not.i55 = icmp eq i64 %75, 0
  br i1 %.not.i55, label %76, label %lean_array_uget.exit

76:                                               ; preds = %lean_dec.exit
  %.val.i.i = load i32, ptr %73, align 4, !tbaa !8
  %77 = icmp sgt i32 %.val.i.i, 0
  br i1 %77, label %78, label %80, !prof !11

78:                                               ; preds = %76
  %79 = add nuw i32 %.val.i.i, 1
  store i32 %79, ptr %73, align 4, !tbaa !8
  br label %lean_array_uget.exit

80:                                               ; preds = %76
  %.not.i.i = icmp eq i32 %.val.i.i, 0
  br i1 %.not.i.i, label %lean_array_uget.exit, label %81

81:                                               ; preds = %80
  tail call void @lean_inc_ref_cold(ptr noundef nonnull %73) #4
  br label %lean_array_uget.exit

lean_array_uget.exit:                             ; preds = %lean_dec.exit, %78, %80, %81
  %82 = tail call ptr @l_Std_DHashMap_Internal_AssocList_get_x3f___rarg(ptr noundef %3, ptr noundef %2, ptr noundef %73) #4
  %83 = tail call ptr @lean_apply_2(ptr noundef %26, ptr noundef nonnull inttoptr (i64 1 to ptr), ptr noundef %82) #4
  ret ptr %83
}